target datalayout = "e-m:e-p270:32:32-p271:32:32-p272:64:64-i64:64-i128:128-f80:128-n8:16:32:64-S128"
target triple = "x86_64-unknown-linux-gnu"

%"struct.llvh::ItaniumPartialDemangler" = type { ptr, ptr }

; Function Attrs: mustprogress nounwind uwtable
define linkonce_odr void @_ZSt4swapIPvENSt9enable_ifIXsr6__and_ISt6__not_ISt15__is_tuple_likeIT_EESt21is_move_constructibleIS4_ESt18is_move_assignableIS4_EEE5valueEvE4typeERS4_SD_(ptr noundef nonnull align 8 dereferenceable(8) %__a, ptr noundef nonnull align 8 dereferenceable(8) %__b) #0 comdat {
entry:
  %__a.addr = alloca ptr, align 8
  %__b.addr = alloca ptr, align 8
  %__tmp = alloca ptr, align 8
  store ptr %__a, ptr %__a.addr, align 8
  store ptr %__b, ptr %__b.addr, align 8
  %0 = load ptr, ptr %__a.addr, align 8
  %1 = load ptr, ptr %0, align 8
  store ptr %1, ptr %__tmp, align 8
  %2 = load ptr, ptr %__b.addr, align 8
  %3 = load ptr, ptr %2, align 8
  %4 = load ptr, ptr %__a.addr, align 8
  store ptr %3, ptr %4, align 8
  %5 = load ptr, ptr %__tmp, align 8
  %6 = load ptr, ptr %__b.addr, align 8
  store ptr %5, ptr %6, align 8
  ret void
}

; Function Attrs: mustprogress nounwind uwtable
define hidden noundef nonnull align 8 dereferenceable(16) ptr @_ZN4llvh23ItaniumPartialDemangleraSEOS0_(ptr noundef nonnull align 8 dereferenceable(16) %this, ptr noundef nonnull align 8 dereferenceable(16) %Other) #0 align 2 {
entry:
  %this.addr = alloca ptr, align 8
  %Other.addr = alloca ptr, align 8
  store ptr %this, ptr %this.addr, align 8
  store ptr %Other, ptr %Other.addr, align 8
  %this1 = load ptr, ptr %this.addr, align 8
  %RootNode = getelementptr inbounds %"struct.llvh::ItaniumPartialDemangler", ptr %this1, i32 0, i32 0
  %0 = load ptr, ptr %Other.addr, align 8
  %RootNode2 = getelementptr inbounds %"struct.llvh::ItaniumPartialDemangler", ptr %0, i32 0, i32 0
  call void @_ZSt4swapIPvENSt9enable_ifIXsr6__and_ISt6__not_ISt15__is_tuple_likeIT_EESt21is_move_constructibleIS4_ESt18is_move_assignableIS4_EEE5valueEvE4typeERS4_SD_(ptr noundef nonnull align 8 dereferenceable(8) %RootNode, ptr noundef nonnull align 8 dereferenceable(8) %RootNode2) #13
  %Context = getelementptr inbounds %"struct.llvh::ItaniumPartialDemangler", ptr %this1, i32 0, i32 1
  %1 = load ptr, ptr %Other.addr, align 8
  %Context3 = getelementptr inbounds %"struct.llvh::ItaniumPartialDemangler", ptr %1, i32 0, i32 1
  call void @_ZSt4swapIPvENSt9enable_ifIXsr6__and_ISt6__not_ISt15__is_tuple_likeIT_EESt21is_move_constructibleIS4_ESt18is_move_assignableIS4_EEE5valueEvE4typeERS4_SD_(ptr noundef nonnull align 8 dereferenceable(8) %Context, ptr noundef nonnull align 8 dereferenceable(8) %Context3) #13
  ret ptr %this1
}