; Function Attrs: mustprogress nofree norecurse nosync nounwind willreturn memory(argmem: readwrite) uwtable
define hidden noundef nonnull align 8 dereferenceable(16) ptr @_ZN4llvh23ItaniumPartialDemangleraSEOS0_(ptr noundef nonnull returned align 8 dereferenceable(16) %this, ptr nocapture noundef nonnull align 8 dereferenceable(16) %Other) local_unnamed_addr #5 align 2 {
entry:
  %0 = load ptr, ptr %this, align 8
  %1 = load ptr, ptr %Other, align 8
  store ptr %1, ptr %this, align 8
  store ptr %0, ptr %Other, align 8
  %Context = getelementptr inbounds i8, ptr %this, i64 8
  %Context3 = getelementptr inbounds i8, ptr %Other, i64 8
  %2 = load ptr, ptr %Context, align 8
  %3 = load ptr, ptr %Context3, align 8
  store ptr %3, ptr %Context, align 8
  store ptr %2, ptr %Context3, align 8
  ret ptr %this
}